Certificate:
    Data:
        Version: 3 (0x2)
        Serial Number:
            c2:5e:e2:dd:a9:50:b7:4e
        Signature Algorithm: sha1WithRSAEncryption
        Issuer: C=XX, ST=XX, O=XX, CN=root
        Validity
            Not Before: Apr 29 13:22:50 2011 GMT
            Not After : Apr 26 13:22:50 2021 GMT
        Subject: C=, ST=, CN=cn1
        Subject Public Key Info:
            Public Key Algorithm: rsaEncryption
            RSA Public Key: (1024 bit)
                Modulus (1024 bit):
                    00:8c:7c:9f:39:ae:a1:f3:d5:22:b6:d0:23:e5:6f:
                    8e:f9:0c:6d:72:35:80:ae:65:5d:a5:ce:84:12:29:
                    d2:8d:59:03:8a:50:3e:37:35:4e:e9:e8:3a:b1:9c:
                    a0:3f:a2:cf:b6:5e:97:f3:21:82:21:25:60:9d:49:
                    4c:bc:73:e7:2a:54:04:3d:68:6b:06:3c:90:00:c6:
                    ca:a0:19:4d:00:3b:59:39:6e:8f:a8:d6:b0:f9:1b:
                    e8:b0:68:3d:f6:81:39:8c:a5:cf:4b:53:9d:01:10:
                    90:b9:f2:58:f0:a9:98:37:45:38:f0:1a:77:5d:98:
                    4c:b8:27:87:2a:ee:cb:cf:a5
                Exponent: 65537 (0x10001)
        X509v3 extensions:
            X509v3 Basic Constraints: 
                CA:FALSE
            Netscape Comment: 
                OpenSSL Generated Certificate
            X509v3 Subject Key Identifier: 
                0C:4E:1C:3D:83:C3:0E:76:F3:99:3B:74:77:A0:BE:25:1B:86:96:16
            X509v3 Authority Key Identifier: 
                keyid:CB:5F:35:94:AB:6E:40:95:EE:3E:A0:BA:37:75:F8:2D:FF:35:0E:1A

    Signature Algorithm: sha1WithRSAEncryption
        1e:74:31:f2:19:03:b3:63:2c:1e:8a:ff:b6:b3:51:b7:3a:01:
        58:c3:27:6b:c7:d9:7a:0a:7e:f6:dd:61:59:e7:bd:4b:dc:2c:
        db:13:99:f8:46:89:0f:bb:7b:48:9c:ae:12:d4:ed:67:c7:23:
        ab:67:fa:51:e8:02:2c:96:24:8d:45:d1:a3:3b:c9:97:f7:cf:
        b8:bc:e7:42:dd:ca:58:bb:9a:38:bc:7b:2f:83:78:9c:49:6d:
        06:6f:a5:ff:e8:99:83:53:76:20:fa:ed:4c:89:85:cf:15:7f:
        bc:bd:18:8f:52:28:db:fd:39:30:47:52:c7:e4:67:61:50:e3:
        9b:9c
-----BEGIN CERTIFICATE-----
MIICUzCCAbygAwIBAgIJAMJe4t2pULdOMA0GCSqGSIb3DQEBBQUAMDYxCzAJBgNV
BAYTAlhYMQswCQYDVQQIEwJYWDELMAkGA1UEChMCWFgxDTALBgNVBAMTBHJvb3Qw
HhcNMTEwNDI5MTMyMjUwWhcNMjEwNDI2MTMyMjUwWjAkMQkwBwYDVQQGEwAxCTAH
BgNVBAgMADEMMAoGA1UEAwwDY24xMIGfMA0GCSqGSIb3DQEBAQUAA4GNADCBiQKB
gQCMfJ85rqHz1SK20CPlb475DG1yNYCuZV2lzoQSKdKNWQOKUD43NU7p6DqxnKA/
os+2XpfzIYIhJWCdSUy8c+cqVAQ9aGsGPJAAxsqgGU0AO1k5bo+o1rD5G+iwaD32
gTmMpc9LU50BEJC58ljwqZg3RTjwGnddmEy4J4cq7svPpQIDAQABo3sweTAJBgNV
HRMEAjAAMCwGCWCGSAGG+EIBDQQfFh1PcGVuU1NMIEdlbmVyYXRlZCBDZXJ0aWZp
Y2F0ZTAdBgNVHQ4EFgQUDE4cPYPDDnbzmTt0d6C+JRuGlhYwHwYDVR0jBBgwFoAU
y181lKtuQJXuPqC6N3X4Lf81DhowDQYJKoZIhvcNAQEFBQADgYEAHnQx8hkDs2Ms
Hor/trNRtzoBWMMna8fZegp+9t1hWee9S9ws2xOZ+EaJD7t7SJyuEtTtZ8cjq2f6
UegCLJYkjUXRozvJl/fPuLznQt3KWLuaOLx7L4N4nEltBm+l/+iZg1N2IPrtTImF
zxV/vL0Yj1Io2/05MEdSx+RnYVDjm5w=
-----END CERTIFICATE-----

-----BEGIN RSA PRIVATE KEY-----
MIICXAIBAAKBgQCMfJ85rqHz1SK20CPlb475DG1yNYCuZV2lzoQSKdKNWQOKUD43
NU7p6DqxnKA/os+2XpfzIYIhJWCdSUy8c+cqVAQ9aGsGPJAAxsqgGU0AO1k5bo+o
1rD5G+iwaD32gTmMpc9LU50BEJC58ljwqZg3RTjwGnddmEy4J4cq7svPpQIDAQAB
AoGALylzBplCkym9AqQzOMXPuHnckBe4AFPVMWF34uUZYww77QXtLPl/aXTlp1SO
U26jznRJDHz2Q4xZt9OwqB88ve5jXiqvsRzdhXMdOjP72RvOD5816NfqtKd2cLB6
N3PAHdsmOLJUgWSdrks3VQYnmCLmCa8NN6NfatVB/5Z6f4ECQQDlIL67P8CoYonn
Tw+ZyWjkOnhJZ0TTAbS7W297BUCbHlvLVAV4KCDpOMDkzf8opoCCe/6Ro+WhTV2B
9zxI75hFAkEAnPaMQTyWl7gaBfRaM+1TLn9ZpyKwQSCJCcs8ZrlYc6w8cIxJSI1B
gmGtnnW0hrhSlQHYGPXVNSHXHnjfLaY/4QJASDIbJxEdeXEjFrk4pzJpVJB/2lEp
xHrjIa3b4J11D+tu7RBacNPkGtiBHxcxcPOVxoefXPCRqFOiRRNL8YddKQJAfHNW
/RqG5ECKEZKOOoG+5C0A7m2ohdrADM3hVCk8omo7eZkhOa8V88RyniMBQZe/knll
11SC+Z+dKoH3ogAgwQJBALbtQ6r7zOPBuCihZX8STak/6bDZXfDq47GM03NVMDRj
nj8Pl7BJ5ugHKTrboBjBjS9FXXOLbYCRbL5j7ZQNMm4=
-----END RSA PRIVATE KEY-----

